; Function Attrs: nounwind uwtable
define internal fastcc noundef ptr @io_file_open(ptr noundef %0, ptr noundef readonly captures(none) %1) unnamed_addr #0 {
  %3 = tail call ptr @lj_lib_checkstr(ptr noundef %0, i32 noundef 1) #10
  %4 = getelementptr inbounds nuw i8, ptr %3, i64 24
  %5 = tail call ptr @lua_newuserdata(ptr noundef %0, i64 noundef 16) #10
  %6 = getelementptr inbounds nuw i8, ptr %0, i64 40
  %7 = load ptr, ptr %6, align 8, !tbaa !4
  %8 = getelementptr inbounds i8, ptr %7, i64 -8
  %9 = load i64, ptr %8, align 8, !tbaa !14
  %10 = and i64 %9, 140737488355327
  %11 = inttoptr i64 %10 to ptr
  %12 = getelementptr inbounds nuw i8, ptr %11, i64 10
  store i8 1, ptr %12, align 2, !tbaa !17
  %13 = getelementptr inbounds nuw i8, ptr %0, i64 32
  %14 = load ptr, ptr %13, align 8, !tbaa !25
  %15 = getelementptr inbounds i8, ptr %14, i64 -16
  %16 = load i64, ptr %15, align 8, !tbaa !14
  %17 = and i64 %16, 140737488355327
  %18 = inttoptr i64 %17 to ptr
  %19 = getelementptr inbounds nuw i8, ptr %18, i64 16
  %20 = load i64, ptr %19, align 8, !tbaa !14
  %21 = getelementptr inbounds nuw i8, ptr %11, i64 32
  store i64 %20, ptr %21, align 8, !tbaa !19
  store ptr null, ptr %5, align 8, !tbaa !20
  %22 = getelementptr inbounds nuw i8, ptr %5, i64 8
  store i32 0, ptr %22, align 8, !tbaa !22
  %23 = tail call noalias ptr @fopen64(ptr noundef nonnull %4, ptr noundef %1)
  store ptr %23, ptr %5, align 8, !tbaa !20
  %24 = icmp eq ptr %23, null
  br i1 %24, label %25, label %31

25:                                               ; preds = %2
  %26 = tail call ptr @__errno_location() #13
  %27 = load i32, ptr %26, align 4, !tbaa !26
  %28 = tail call ptr @strerror(i32 noundef %27) #10
  %29 = tail call ptr (ptr, ptr, ...) @lj_strfmt_pushf(ptr noundef nonnull %0, ptr noundef nonnull @.str.15, ptr noundef nonnull %4, ptr noundef %28) #10
  %30 = tail call i32 @luaL_argerror(ptr noundef nonnull %0, i32 noundef 1, ptr noundef %29) #10
  br label %31

31:                                               ; preds = %25, %2
  ret ptr %5
}